target datalayout = "e-m:e-p270:32:32-p271:32:32-p272:64:64-i64:64-i128:128-f80:128-n8:16:32:64-S128"
target triple = "x86_64-unknown-linux-gnu"

%"class.std::shared_ptr" = type { %"class.std::__shared_ptr" }
%"class.std::__shared_ptr" = type { ptr, %"class.std::__shared_count" }
%"class.std::__shared_count" = type { ptr }
%"class.node::inspector::WorkerManager" = type <{ %"class.std::enable_shared_from_this.18", %"class.std::shared_ptr", %"class.std::unordered_map", %"class.std::unordered_map.26", %"class.std::unordered_set", i32, [4 x i8] }>
%"class.std::enable_shared_from_this.18" = type { %"class.std::weak_ptr.19" }
%"class.std::weak_ptr.19" = type { %"class.std::__weak_ptr.20" }
%"class.std::__weak_ptr.20" = type { ptr, %"class.std::__weak_count" }
%"class.std::__weak_count" = type { ptr }
%"class.std::unordered_map" = type { %"class.std::_Hashtable" }
%"class.std::_Hashtable" = type { ptr, i64, %"struct.std::__detail::_Hash_node_base", i64, %"struct.std::__detail::_Prime_rehash_policy", ptr }
%"struct.std::__detail::_Hash_node_base" = type { ptr }
%"struct.std::__detail::_Prime_rehash_policy" = type { float, i64 }
%"class.std::unordered_map.26" = type { %"class.std::_Hashtable.27" }
%"class.std::_Hashtable.27" = type { ptr, i64, %"struct.std::__detail::_Hash_node_base", i64, %"struct.std::__detail::_Prime_rehash_policy", ptr }
%"class.std::unordered_set" = type { %"class.std::_Hashtable.46" }
%"class.std::_Hashtable.46" = type { ptr, i64, %"struct.std::__detail::_Hash_node_base", i64, %"struct.std::__detail::_Prime_rehash_policy", ptr }
%"class.std::unique_ptr.71" = type { %"struct.std::__uniq_ptr_data.72" }
%"struct.std::__uniq_ptr_data.72" = type { %"class.std::__uniq_ptr_impl.73" }
%"class.std::__uniq_ptr_impl.73" = type { %"class.std::tuple.74" }
%"class.std::tuple.74" = type { %"struct.std::_Tuple_impl.75" }
%"struct.std::_Tuple_impl.75" = type { %"struct.std::_Head_base.78" }
%"struct.std::_Head_base.78" = type { ptr }

; Function Attrs: mustprogress nounwind uwtable
define linkonce_odr dso_local noundef i64 @_ZNKSt10_HashtableIiiSaIiENSt8__detail9_IdentityESt8equal_toIiESt4hashIiENS1_18_Mod_range_hashingENS1_20_Default_ranged_hashENS1_20_Prime_rehash_policyENS1_17_Hashtable_traitsILb0ELb1ELb1EEEE4sizeEv(ptr noundef nonnull align 8 dereferenceable(56) %this) #0 comdat align 2 {
entry:
  %this.addr = alloca ptr, align 8
  store ptr %this, ptr %this.addr, align 8
  %this1 = load ptr, ptr %this.addr, align 8
  %_M_element_count = getelementptr inbounds %"class.std::_Hashtable.46", ptr %this1, i32 0, i32 3
  %0 = load i64, ptr %_M_element_count, align 8
  ret i64 %0
}

; Function Attrs: mustprogress nounwind uwtable
define linkonce_odr dso_local noundef zeroext i1 @_ZNKSt10_HashtableIiiSaIiENSt8__detail9_IdentityESt8equal_toIiESt4hashIiENS1_18_Mod_range_hashingENS1_20_Default_ranged_hashENS1_20_Prime_rehash_policyENS1_17_Hashtable_traitsILb0ELb1ELb1EEEE5emptyEv(ptr noundef nonnull align 8 dereferenceable(56) %this) #0 comdat align 2 {
entry:
  %this.addr = alloca ptr, align 8
  store ptr %this, ptr %this.addr, align 8
  %this1 = load ptr, ptr %this.addr, align 8
  %call = call noundef i64 @_ZNKSt10_HashtableIiiSaIiENSt8__detail9_IdentityESt8equal_toIiESt4hashIiENS1_18_Mod_range_hashingENS1_20_Default_ranged_hashENS1_20_Prime_rehash_policyENS1_17_Hashtable_traitsILb0ELb1ELb1EEEE4sizeEv(ptr noundef nonnull align 8 dereferenceable(56) %this1) #10
  %cmp = icmp eq i64 %call, 0
  ret i1 %cmp
}

; Function Attrs: mustprogress nounwind uwtable
define linkonce_odr dso_local noundef zeroext i1 @_ZNKSt13unordered_setIiSt4hashIiESt8equal_toIiESaIiEE5emptyEv(ptr noundef nonnull align 8 dereferenceable(56) %this) #0 comdat align 2 {
entry:
  %this.addr = alloca ptr, align 8
  store ptr %this, ptr %this.addr, align 8
  %this1 = load ptr, ptr %this.addr, align 8
  %_M_h = getelementptr inbounds %"class.std::unordered_set", ptr %this1, i32 0, i32 0
  %call = call noundef zeroext i1 @_ZNKSt10_HashtableIiiSaIiENSt8__detail9_IdentityESt8equal_toIiESt4hashIiENS1_18_Mod_range_hashingENS1_20_Default_ranged_hashENS1_20_Prime_rehash_policyENS1_17_Hashtable_traitsILb0ELb1ELb1EEEE5emptyEv(ptr noundef nonnull align 8 dereferenceable(56) %_M_h) #10
  ret i1 %call
}

; Function Attrs: mustprogress nounwind uwtable
define dso_local void @_ZN4node9inspector13WorkerManager15NewParentHandleEmRKNSt7__cxx1112basic_stringIcSt11char_traitsIcESaIcEEES9_(ptr noalias sret(%"class.std::unique_ptr.71") align 8 %agg.result, ptr noundef nonnull align 8 dereferenceable(204) %this, i64 noundef %thread_id, ptr noundef nonnull align 8 dereferenceable(32) %url, ptr noundef nonnull align 8 dereferenceable(32) %name) #0 align 2 {
entry:
  %result.ptr = alloca ptr, align 8
  %this.addr = alloca ptr, align 8
  %thread_id.addr = alloca i64, align 8
  %url.addr = alloca ptr, align 8
  %name.addr = alloca ptr, align 8
  %wait = alloca i8, align 1
  store ptr %agg.result, ptr %result.ptr, align 8
  store ptr %this, ptr %this.addr, align 8
  store i64 %thread_id, ptr %thread_id.addr, align 8
  store ptr %url, ptr %url.addr, align 8
  store ptr %name, ptr %name.addr, align 8
  %this1 = load ptr, ptr %this.addr, align 8
  %delegates_waiting_on_start_ = getelementptr inbounds %"class.node::inspector::WorkerManager", ptr %this1, i32 0, i32 4
  %call = call noundef zeroext i1 @_ZNKSt13unordered_setIiSt4hashIiESt8equal_toIiESaIiEE5emptyEv(ptr noundef nonnull align 8 dereferenceable(56) %delegates_waiting_on_start_) #10
  %lnot = xor i1 %call, true
  %frombool = zext i1 %lnot to i8
  store i8 %frombool, ptr %wait, align 1
  %0 = load ptr, ptr %url.addr, align 8
  %thread_ = getelementptr inbounds %"class.node::inspector::WorkerManager", ptr %this1, i32 0, i32 1
  %1 = load ptr, ptr %name.addr, align 8
  call void @_ZSt11make_uniqueIN4node9inspector21ParentInspectorHandleEJRmRKNSt7__cxx1112basic_stringIcSt11char_traitsIcESaIcEEERSt10shared_ptrINS1_16MainThreadHandleEERbSB_EENSt8__detail9_MakeUniqIT_E15__single_objectEDpOT0_(ptr sret(%"class.std::unique_ptr.71") align 8 %agg.result, ptr noundef nonnull align 8 dereferenceable(8) %thread_id.addr, ptr noundef nonnull align 8 dereferenceable(32) %0, ptr noundef nonnull align 8 dereferenceable(16) %thread_, ptr noundef nonnull align 1 dereferenceable(1) %wait, ptr noundef nonnull align 8 dereferenceable(32) %1)
  ret void
}