; Function Attrs: mustprogress nounwind uwtable
define dso_local void @_ZN4node9inspector13WorkerManager15NewParentHandleEmRKNSt7__cxx1112basic_stringIcSt11char_traitsIcESaIcEEES9_(ptr noalias sret(%"class.std::unique_ptr.71") align 8 %agg.result, ptr noundef nonnull align 8 dereferenceable(204) %this, i64 noundef %thread_id, ptr noundef nonnull align 8 dereferenceable(32) %url, ptr noundef nonnull align 8 dereferenceable(32) %name) local_unnamed_addr #0 align 2 {
entry:
  %thread_id.addr = alloca i64, align 8
  %wait = alloca i8, align 1
  store i64 %thread_id, ptr %thread_id.addr, align 8
  %_M_element_count.i.i.i = getelementptr inbounds i8, ptr %this, i64 168
  %0 = load i64, ptr %_M_element_count.i.i.i, align 8
  %cmp.i.i = icmp ne i64 %0, 0
  %frombool = zext i1 %cmp.i.i to i8
  store i8 %frombool, ptr %wait, align 1
  %thread_ = getelementptr inbounds i8, ptr %this, i64 16
  call void @_ZSt11make_uniqueIN4node9inspector21ParentInspectorHandleEJRmRKNSt7__cxx1112basic_stringIcSt11char_traitsIcESaIcEEERSt10shared_ptrINS1_16MainThreadHandleEERbSB_EENSt8__detail9_MakeUniqIT_E15__single_objectEDpOT0_(ptr sret(%"class.std::unique_ptr.71") align 8 %agg.result, ptr noundef nonnull align 8 dereferenceable(8) %thread_id.addr, ptr noundef nonnull align 8 dereferenceable(32) %url, ptr noundef nonnull align 8 dereferenceable(16) %thread_, ptr noundef nonnull align 1 dereferenceable(1) %wait, ptr noundef nonnull align 8 dereferenceable(32) %name)
  ret void
}